; Function Attrs: mustprogress uwtable
define noundef zeroext i1 @_ZNK6icu_7713LikelySubtags13isMacroregionERNS_11StringPieceER10UErrorCode(ptr nonnull readnone align 8 captures(none) %0, ptr noundef nonnull readonly align 8 captures(none) dereferenceable(12) %1, ptr noundef nonnull align 4 dereferenceable(4) %2) local_unnamed_addr #1 align 2 personality ptr @__gxx_personality_v0 {
  %4 = alloca %"class.icu_77::UnicodeString", align 8
  %5 = load i32, ptr %2, align 4, !tbaa !13
  %6 = icmp slt i32 %5, 1
  br i1 %6, label %7, label %24

7:                                                ; preds = %3
  %8 = load atomic i32, ptr @_ZN6icu_7712_GLOBAL__N_19gInitOnceE acquire, align 4
  %.not11.i = icmp eq i32 %8, 2
  br i1 %.not11.i, label %13, label %9

9:                                                ; preds = %7
  %10 = tail call noundef signext i8 @_ZN6icu_7720umtx_initImplPreInitERNS_9UInitOnceE(ptr noundef nonnull align 4 dereferenceable(8) @_ZN6icu_7712_GLOBAL__N_19gInitOnceE)
  %.not12.i = icmp eq i8 %10, 0
  br i1 %.not12.i, label %13, label %11

11:                                               ; preds = %9
  tail call void @_ZN6icu_7713LikelySubtags17initLikelySubtagsER10UErrorCode(ptr noundef nonnull align 4 dereferenceable(4) %2)
  %12 = load i32, ptr %2, align 4, !tbaa !13
  store i32 %12, ptr getelementptr inbounds nuw (i8, ptr @_ZN6icu_7712_GLOBAL__N_19gInitOnceE, i64 4), align 4, !tbaa !104
  tail call void @_ZN6icu_7721umtx_initImplPostInitERNS_9UInitOnceE(ptr noundef nonnull align 4 dereferenceable(8) @_ZN6icu_7712_GLOBAL__N_19gInitOnceE)
  br label %_ZN6icu_7713umtx_initOnceERNS_9UInitOnceEPFvR10UErrorCodeES3_.exit

13:                                               ; preds = %9, %7
  %14 = load i32, ptr getelementptr inbounds nuw (i8, ptr @_ZN6icu_7712_GLOBAL__N_19gInitOnceE, i64 4), align 4, !tbaa !104
  %15 = icmp slt i32 %14, 1
  br i1 %15, label %_ZN6icu_7713umtx_initOnceERNS_9UInitOnceEPFvR10UErrorCodeES3_.exit, label %_ZN6icu_7713umtx_initOnceERNS_9UInitOnceEPFvR10UErrorCodeES3_.exit.thread

_ZN6icu_7713umtx_initOnceERNS_9UInitOnceEPFvR10UErrorCodeES3_.exit.thread: ; preds = %13
  store i32 %14, ptr %2, align 4, !tbaa !13
  br label %24

_ZN6icu_7713umtx_initOnceERNS_9UInitOnceEPFvR10UErrorCodeES3_.exit: ; preds = %11, %13
  %.pr = load i32, ptr %2, align 4, !tbaa !13
  %16 = icmp slt i32 %.pr, 1
  br i1 %16, label %17, label %24

17:                                               ; preds = %_ZN6icu_7713umtx_initOnceERNS_9UInitOnceEPFvR10UErrorCodeES3_.exit
  call void @llvm.lifetime.start.p0(i64 64, ptr nonnull %4) #17
  %.sroa.0.0.copyload = load ptr, ptr %1, align 8
  %.sroa.2.0..sroa_idx = getelementptr inbounds nuw i8, ptr %1, i64 8
  %.sroa.2.0.copyload = load i32, ptr %.sroa.2.0..sroa_idx, align 8
  call void @_ZN6icu_7713UnicodeString8fromUTF8ENS_11StringPieceE(ptr dead_on_unwind nonnull writable sret(%"class.icu_77::UnicodeString") align 8 %4, ptr %.sroa.0.0.copyload, i32 %.sroa.2.0.copyload)
  %18 = load ptr, ptr @_ZN6icu_7712_GLOBAL__N_113gMacroregionsE, align 8, !tbaa !30
  %19 = invoke noundef i32 @_ZNK6icu_777UVector7indexOfEPvi(ptr noundef nonnull align 8 dereferenceable(40) %18, ptr noundef nonnull %4, i32 noundef 0)
          to label %20 unwind label %22

20:                                               ; preds = %17
  %21 = icmp sgt i32 %19, -1
  call void @_ZN6icu_7713UnicodeStringD1Ev(ptr noundef nonnull align 8 dereferenceable(64) %4) #17
  call void @llvm.lifetime.end.p0(i64 64, ptr nonnull %4) #17
  br label %24

22:                                               ; preds = %17
  %23 = landingpad { ptr, i32 }
          cleanup
  call void @_ZN6icu_7713UnicodeStringD1Ev(ptr noundef nonnull align 8 dereferenceable(64) %4) #17
  call void @llvm.lifetime.end.p0(i64 64, ptr nonnull %4) #17
  resume { ptr, i32 } %23

24:                                               ; preds = %_ZN6icu_7713umtx_initOnceERNS_9UInitOnceEPFvR10UErrorCodeES3_.exit.thread, %_ZN6icu_7713umtx_initOnceERNS_9UInitOnceEPFvR10UErrorCodeES3_.exit, %3, %20
  %.0 = phi i1 [ %21, %20 ], [ false, %3 ], [ false, %_ZN6icu_7713umtx_initOnceERNS_9UInitOnceEPFvR10UErrorCodeES3_.exit ], [ false, %_ZN6icu_7713umtx_initOnceERNS_9UInitOnceEPFvR10UErrorCodeES3_.exit.thread ]
  ret i1 %.0
}